; Function Attrs: mustprogress nofree nounwind uwtable
define dso_local void @_ZN7Metrics6ReportEv(ptr noundef nonnull readonly align 8 captures(none) dereferenceable(24) %0) local_unnamed_addr #3 align 2 {
  %2 = load ptr, ptr %0, align 8, !tbaa !29
  %3 = getelementptr inbounds nuw i8, ptr %0, i64 8
  %4 = load ptr, ptr %3, align 8, !tbaa !29
  %.not21 = icmp eq ptr %2, %4
  br i1 %.not21, label %._crit_edge, label %.lr.ph

._crit_edge:                                      ; preds = %.lr.ph, %1
  %.0.lcssa = phi i32 [ 0, %1 ], [ %.sroa.speculated, %.lr.ph ]
  %5 = tail call i32 (ptr, ...) @printf(ptr noundef nonnull dereferenceable(1) @.str, i32 noundef %.0.lcssa, ptr noundef nonnull @.str.1, ptr noundef nonnull @.str.2, ptr noundef nonnull @.str.3, ptr noundef nonnull @.str.4)
  %6 = load ptr, ptr %0, align 8, !tbaa !29
  %7 = load ptr, ptr %3, align 8, !tbaa !29
  %.not2024 = icmp eq ptr %6, %7
  br i1 %.not2024, label %._crit_edge28, label %.lr.ph27

.lr.ph:                                           ; preds = %1, %.lr.ph
  %.023 = phi i32 [ %.sroa.speculated, %.lr.ph ], [ 0, %1 ]
  %.sroa.013.022 = phi ptr [ %12, %.lr.ph ], [ %2, %1 ]
  %8 = load ptr, ptr %.sroa.013.022, align 8, !tbaa !27
  %9 = getelementptr inbounds nuw i8, ptr %8, i64 8
  %10 = load i64, ptr %9, align 8, !tbaa !20
  %11 = trunc i64 %10 to i32
  %.sroa.speculated = tail call i32 @llvm.smax.i32(i32 %.023, i32 %11)
  %12 = getelementptr inbounds nuw i8, ptr %.sroa.013.022, i64 8
  %.not = icmp eq ptr %12, %4
  br i1 %.not, label %._crit_edge, label %.lr.ph, !llvm.loop !30

._crit_edge28:                                    ; preds = %.lr.ph27, %._crit_edge
  ret void

.lr.ph27:                                         ; preds = %._crit_edge, %.lr.ph27
  %.sroa.08.025 = phi ptr [ %25, %.lr.ph27 ], [ %6, %._crit_edge ]
  %13 = load ptr, ptr %.sroa.08.025, align 8, !tbaa !27
  %14 = getelementptr inbounds nuw i8, ptr %13, i64 40
  %15 = load i64, ptr %14, align 8, !tbaa !18
  %16 = sdiv i64 %15, 1000
  %17 = uitofp i64 %16 to double
  %18 = fdiv double %17, 1.000000e+03
  %19 = getelementptr inbounds nuw i8, ptr %13, i64 32
  %20 = load i32, ptr %19, align 8, !tbaa !12
  %21 = sitofp i32 %20 to double
  %22 = fdiv double %17, %21
  %23 = load ptr, ptr %13, align 8, !tbaa !32
  %24 = tail call i32 (ptr, ...) @printf(ptr noundef nonnull dereferenceable(1) @.str.5, i32 noundef %.0.lcssa, ptr noundef %23, i32 noundef %20, double noundef %22, double noundef %18)
  %25 = getelementptr inbounds nuw i8, ptr %.sroa.08.025, i64 8
  %26 = load ptr, ptr %3, align 8, !tbaa !29
  %.not20 = icmp eq ptr %25, %26
  br i1 %.not20, label %._crit_edge28, label %.lr.ph27, !llvm.loop !33
}